target datalayout = "e-m:e-p270:32:32-p271:32:32-p272:64:64-i64:64-i128:128-f80:128-n8:16:32:64-S128"
target triple = "x86_64-pc-linux-gnu"

%struct.FT_Bitmap_ = type { i32, i32, i32, ptr, i16, i8, i8, ptr }
%struct.FT_LibraryRec_ = type { ptr, i32, i32, i32, i32, [32 x ptr], %struct.FT_ListRec_, ptr, ptr, [4 x ptr], [3 x %struct.FT_Vector_], i32 }
%struct.FT_ListRec_ = type { ptr, ptr }
%struct.FT_Vector_ = type { i64, i64 }

@null_bitmap = internal constant %struct.FT_Bitmap_ zeroinitializer, align 8

; Function Attrs: nounwind uwtable
define i32 @FT_Bitmap_Done(ptr noundef %0, ptr noundef %1) #0 {
  %3 = alloca i32, align 4
  %4 = alloca ptr, align 8
  %5 = alloca ptr, align 8
  %6 = alloca ptr, align 8
  store ptr %0, ptr %4, align 8
  store ptr %1, ptr %5, align 8
  %7 = load ptr, ptr %4, align 8
  %8 = icmp ne ptr %7, null
  br i1 %8, label %10, label %9

9:                                                ; preds = %2
  store i32 33, ptr %3, align 4
  br label %27

10:                                               ; preds = %2
  %11 = load ptr, ptr %5, align 8
  %12 = icmp ne ptr %11, null
  br i1 %12, label %14, label %13

13:                                               ; preds = %10
  store i32 6, ptr %3, align 4
  br label %27

14:                                               ; preds = %10
  %15 = load ptr, ptr %4, align 8
  %16 = getelementptr inbounds %struct.FT_LibraryRec_, ptr %15, i32 0, i32 0
  %17 = load ptr, ptr %16, align 8
  store ptr %17, ptr %6, align 8
  br label %18

18:                                               ; preds = %14
  %19 = load ptr, ptr %6, align 8
  %20 = load ptr, ptr %5, align 8
  %21 = getelementptr inbounds %struct.FT_Bitmap_, ptr %20, i32 0, i32 3
  %22 = load ptr, ptr %21, align 8
  call void @ft_mem_free(ptr noundef %19, ptr noundef %22)
  %23 = load ptr, ptr %5, align 8
  %24 = getelementptr inbounds %struct.FT_Bitmap_, ptr %23, i32 0, i32 3
  store ptr null, ptr %24, align 8
  br label %25

25:                                               ; preds = %18
  %26 = load ptr, ptr %5, align 8
  call void @llvm.memcpy.p0.p0.i64(ptr align 8 %26, ptr align 8 @null_bitmap, i64 40, i1 false)
  store i32 0, ptr %3, align 4
  br label %27

27:                                               ; preds = %25, %13, %9
  %28 = load i32, ptr %3, align 4
  ret i32 %28
}