; Function Attrs: nounwind uwtable
define range(i32 0, 34) i32 @FT_Bitmap_Done(ptr noundef readonly %0, ptr noundef %1) local_unnamed_addr #2 {
  %.not = icmp eq ptr %0, null
  br i1 %.not, label %8, label %3

3:                                                ; preds = %2
  %.not9 = icmp eq ptr %1, null
  br i1 %.not9, label %8, label %4

4:                                                ; preds = %3
  %5 = load ptr, ptr %0, align 8
  %6 = getelementptr inbounds i8, ptr %1, i64 16
  %7 = load ptr, ptr %6, align 8
  tail call void @ft_mem_free(ptr noundef %5, ptr noundef %7) #7
  tail call void @llvm.memset.p0.i64(ptr noundef nonnull align 8 dereferenceable(40) %1, i8 0, i64 40, i1 false)
  br label %8

8:                                                ; preds = %3, %2, %4
  %.0 = phi i32 [ 0, %4 ], [ 33, %2 ], [ 6, %3 ]
  ret i32 %.0
}